; Function Attrs: nounwind uwtable
define internal range(i32 -1, 1) i32 @pwdmodule_exec(ptr noundef %0) #0 {
  %2 = tail call ptr @PyModule_GetState(ptr noundef %0) #4
  %3 = tail call ptr @PyStructSequence_NewType(ptr noundef nonnull @struct_pwd_type_desc) #4
  store ptr %3, ptr %2, align 8, !tbaa !4
  %4 = icmp eq ptr %3, null
  br i1 %4, label %7, label %5

5:                                                ; preds = %1
  %6 = tail call i32 @PyModule_AddType(ptr noundef %0, ptr noundef nonnull %3) #4
  %.lobit = ashr i32 %6, 31
  br label %7

7:                                                ; preds = %5, %1
  %.0 = phi i32 [ -1, %1 ], [ %.lobit, %5 ]
  ret i32 %.0
}